target datalayout = "e-m:e-p270:32:32-p271:32:32-p272:64:64-i64:64-i128:128-f80:128-n8:16:32:64-S128"
target triple = "x86_64-unknown-linux-gnu"

%"struct.icu_75::CollationTailoring" = type { %"class.icu_75::SharedObject", ptr, ptr, %"class.icu_75::UnicodeString", %"class.icu_75::Locale", [4 x i8], ptr, ptr, ptr, ptr, ptr, ptr, ptr, %"struct.icu_75::UInitOnce" }
%"class.icu_75::SharedObject" = type { %"class.icu_75::UObject", i32, %"struct.std::atomic", ptr }
%"class.icu_75::UObject" = type { ptr }
%"struct.std::atomic" = type { %"struct.std::__atomic_base" }
%"struct.std::__atomic_base" = type { i32 }
%"class.icu_75::UnicodeString" = type { %"class.icu_75::Replaceable", %"union.icu_75::UnicodeString::StackBufferOrFields" }
%"class.icu_75::Replaceable" = type { %"class.icu_75::UObject" }
%"union.icu_75::UnicodeString::StackBufferOrFields" = type { %struct.anon.0, [32 x i8] }
%struct.anon.0 = type { i16, i32, i32, ptr }
%"class.icu_75::Locale" = type <{ %"class.icu_75::UObject", [12 x i8], [6 x i8], [4 x i8], [2 x i8], i32, [4 x i8], ptr, [157 x i8], [3 x i8], ptr, i8, [7 x i8] }>
%"struct.icu_75::UInitOnce" = type { %"struct.std::atomic", i32 }
%"struct.icu_75::CollationData" = type <{ ptr, ptr, ptr, ptr, ptr, ptr, ptr, i32, i32, i32, i32, ptr, ptr, ptr, i32, i32, ptr, ptr, i32, [4 x i8], ptr, i32, [4 x i8] }>

; Function Attrs: mustprogress nounwind uwtable
define linkonce_odr void @_ZN6icu_7513CollationDataC2ERKNS_15Normalizer2ImplE(ptr noundef nonnull align 8 dereferenceable(140) %this, ptr noundef nonnull align 8 dereferenceable(80) %nfc) unnamed_addr #1 comdat align 2 {
entry:
  %this.addr = alloca ptr, align 8
  %nfc.addr = alloca ptr, align 8
  store ptr %this, ptr %this.addr, align 8
  store ptr %nfc, ptr %nfc.addr, align 8
  %this1 = load ptr, ptr %this.addr, align 8
  %trie = getelementptr inbounds %"struct.icu_75::CollationData", ptr %this1, i32 0, i32 0
  store ptr null, ptr %trie, align 8
  %ce32s = getelementptr inbounds %"struct.icu_75::CollationData", ptr %this1, i32 0, i32 1
  store ptr null, ptr %ce32s, align 8
  %ces = getelementptr inbounds %"struct.icu_75::CollationData", ptr %this1, i32 0, i32 2
  store ptr null, ptr %ces, align 8
  %contexts = getelementptr inbounds %"struct.icu_75::CollationData", ptr %this1, i32 0, i32 3
  store ptr null, ptr %contexts, align 8
  %base = getelementptr inbounds %"struct.icu_75::CollationData", ptr %this1, i32 0, i32 4
  store ptr null, ptr %base, align 8
  %jamoCE32s = getelementptr inbounds %"struct.icu_75::CollationData", ptr %this1, i32 0, i32 5
  store ptr null, ptr %jamoCE32s, align 8
  %nfcImpl = getelementptr inbounds %"struct.icu_75::CollationData", ptr %this1, i32 0, i32 6
  %0 = load ptr, ptr %nfc.addr, align 8
  store ptr %0, ptr %nfcImpl, align 8
  %numericPrimary = getelementptr inbounds %"struct.icu_75::CollationData", ptr %this1, i32 0, i32 7
  store i32 301989888, ptr %numericPrimary, align 8
  %ce32sLength = getelementptr inbounds %"struct.icu_75::CollationData", ptr %this1, i32 0, i32 8
  store i32 0, ptr %ce32sLength, align 4
  %cesLength = getelementptr inbounds %"struct.icu_75::CollationData", ptr %this1, i32 0, i32 9
  store i32 0, ptr %cesLength, align 8
  %contextsLength = getelementptr inbounds %"struct.icu_75::CollationData", ptr %this1, i32 0, i32 10
  store i32 0, ptr %contextsLength, align 4
  %compressibleBytes = getelementptr inbounds %"struct.icu_75::CollationData", ptr %this1, i32 0, i32 11
  store ptr null, ptr %compressibleBytes, align 8
  %unsafeBackwardSet = getelementptr inbounds %"struct.icu_75::CollationData", ptr %this1, i32 0, i32 12
  store ptr null, ptr %unsafeBackwardSet, align 8
  %fastLatinTable = getelementptr inbounds %"struct.icu_75::CollationData", ptr %this1, i32 0, i32 13
  store ptr null, ptr %fastLatinTable, align 8
  %fastLatinTableLength = getelementptr inbounds %"struct.icu_75::CollationData", ptr %this1, i32 0, i32 14
  store i32 0, ptr %fastLatinTableLength, align 8
  %numScripts = getelementptr inbounds %"struct.icu_75::CollationData", ptr %this1, i32 0, i32 15
  store i32 0, ptr %numScripts, align 4
  %scriptsIndex = getelementptr inbounds %"struct.icu_75::CollationData", ptr %this1, i32 0, i32 16
  store ptr null, ptr %scriptsIndex, align 8
  %scriptStarts = getelementptr inbounds %"struct.icu_75::CollationData", ptr %this1, i32 0, i32 17
  store ptr null, ptr %scriptStarts, align 8
  %scriptStartsLength = getelementptr inbounds %"struct.icu_75::CollationData", ptr %this1, i32 0, i32 18
  store i32 0, ptr %scriptStartsLength, align 8
  %rootElements = getelementptr inbounds %"struct.icu_75::CollationData", ptr %this1, i32 0, i32 20
  store ptr null, ptr %rootElements, align 8
  %rootElementsLength = getelementptr inbounds %"struct.icu_75::CollationData", ptr %this1, i32 0, i32 21
  store i32 0, ptr %rootElementsLength, align 8
  ret void
}

; Function Attrs: mustprogress nounwind uwtable
define internal noundef signext i8 @_ZL9U_FAILURE10UErrorCode(i32 noundef %code) #1 {
entry:
  %code.addr = alloca i32, align 4
  store i32 %code, ptr %code.addr, align 4
  %0 = load i32, ptr %code.addr, align 4
  %cmp = icmp sgt i32 %0, 0
  %conv = zext i1 %cmp to i8
  ret i8 %conv
}

; Function Attrs: mustprogress uwtable
define noundef signext i8 @_ZN6icu_7518CollationTailoring15ensureOwnedDataER10UErrorCode(ptr noundef nonnull align 8 dereferenceable(400) %this, ptr noundef nonnull align 4 dereferenceable(4) %errorCode) #0 align 2 personality ptr @__gxx_personality_v0 {
entry:
  %retval = alloca i8, align 1
  %this.addr = alloca ptr, align 8
  %errorCode.addr = alloca ptr, align 8
  %nfcImpl = alloca ptr, align 8
  %saved-rvalue = alloca ptr, align 8
  %cleanup.cond = alloca i1, align 1
  %exn.slot = alloca ptr, align 8
  %ehselector.slot = alloca i32, align 4
  store ptr %this, ptr %this.addr, align 8
  store ptr %errorCode, ptr %errorCode.addr, align 8
  %this1 = load ptr, ptr %this.addr, align 8
  %0 = load ptr, ptr %errorCode.addr, align 8
  %1 = load i32, ptr %0, align 4
  %call = call noundef signext i8 @_ZL9U_FAILURE10UErrorCode(i32 noundef %1)
  %tobool = icmp ne i8 %call, 0
  br i1 %tobool, label %if.then, label %if.end

if.then:                                          ; preds = %entry
  store i8 0, ptr %retval, align 1
  br label %return

if.end:                                           ; preds = %entry
  %ownedData = getelementptr inbounds %"struct.icu_75::CollationTailoring", ptr %this1, i32 0, i32 6
  %2 = load ptr, ptr %ownedData, align 8
  %cmp = icmp eq ptr %2, null
  br i1 %cmp, label %if.then2, label %if.end14

if.then2:                                         ; preds = %if.end
  %3 = load ptr, ptr %errorCode.addr, align 8
  %call3 = call noundef ptr @_ZN6icu_7518Normalizer2Factory10getNFCImplER10UErrorCode(ptr noundef nonnull align 4 dereferenceable(4) %3)
  store ptr %call3, ptr %nfcImpl, align 8
  %4 = load ptr, ptr %errorCode.addr, align 8
  %5 = load i32, ptr %4, align 4
  %call4 = call noundef signext i8 @_ZL9U_FAILURE10UErrorCode(i32 noundef %5)
  %tobool5 = icmp ne i8 %call4, 0
  br i1 %tobool5, label %if.then6, label %if.end7

if.then6:                                         ; preds = %if.then2
  store i8 0, ptr %retval, align 1
  br label %return

if.end7:                                          ; preds = %if.then2
  %call8 = call noundef ptr @_ZN6icu_757UMemorynwEm(i64 noundef 144) #5
  %new.isnull = icmp eq ptr %call8, null
  store i1 false, ptr %cleanup.cond, align 1
  br i1 %new.isnull, label %new.cont, label %new.notnull

new.notnull:                                      ; preds = %if.end7
  store ptr %call8, ptr %saved-rvalue, align 8
  store i1 true, ptr %cleanup.cond, align 1
  %6 = load ptr, ptr %nfcImpl, align 8
  invoke void @_ZN6icu_7513CollationDataC2ERKNS_15Normalizer2ImplE(ptr noundef nonnull align 8 dereferenceable(140) %call8, ptr noundef nonnull align 8 dereferenceable(80) %6)
          to label %invoke.cont unwind label %lpad

invoke.cont:                                      ; preds = %new.notnull
  br label %new.cont

new.cont:                                         ; preds = %invoke.cont, %if.end7
  %7 = phi ptr [ %call8, %invoke.cont ], [ null, %if.end7 ]
  %ownedData9 = getelementptr inbounds %"struct.icu_75::CollationTailoring", ptr %this1, i32 0, i32 6
  store ptr %7, ptr %ownedData9, align 8
  %ownedData10 = getelementptr inbounds %"struct.icu_75::CollationTailoring", ptr %this1, i32 0, i32 6
  %8 = load ptr, ptr %ownedData10, align 8
  %cmp11 = icmp eq ptr %8, null
  br i1 %cmp11, label %if.then12, label %if.end13

if.then12:                                        ; preds = %new.cont
  %9 = load ptr, ptr %errorCode.addr, align 8
  store i32 7, ptr %9, align 4
  store i8 0, ptr %retval, align 1
  br label %return

lpad:                                             ; preds = %new.notnull
  %10 = landingpad { ptr, i32 }
          cleanup
  %11 = extractvalue { ptr, i32 } %10, 0
  store ptr %11, ptr %exn.slot, align 8
  %12 = extractvalue { ptr, i32 } %10, 1
  store i32 %12, ptr %ehselector.slot, align 4
  %cleanup.is_active = load i1, ptr %cleanup.cond, align 1
  br i1 %cleanup.is_active, label %cleanup.action, label %cleanup.done

cleanup.action:                                   ; preds = %lpad
  %13 = load ptr, ptr %saved-rvalue, align 8
  call void @_ZN6icu_757UMemorydlEPv(ptr noundef %13) #5
  br label %cleanup.done

cleanup.done:                                     ; preds = %cleanup.action, %lpad
  br label %eh.resume

if.end13:                                         ; preds = %new.cont
  br label %if.end14

if.end14:                                         ; preds = %if.end13, %if.end
  %ownedData15 = getelementptr inbounds %"struct.icu_75::CollationTailoring", ptr %this1, i32 0, i32 6
  %14 = load ptr, ptr %ownedData15, align 8
  %data = getelementptr inbounds %"struct.icu_75::CollationTailoring", ptr %this1, i32 0, i32 1
  store ptr %14, ptr %data, align 8
  store i8 1, ptr %retval, align 1
  br label %return

return:                                           ; preds = %if.end14, %if.then12, %if.then6, %if.then
  %15 = load i8, ptr %retval, align 1
  ret i8 %15

eh.resume:                                        ; preds = %cleanup.done
  %exn = load ptr, ptr %exn.slot, align 8
  %sel = load i32, ptr %ehselector.slot, align 4
  %lpad.val = insertvalue { ptr, i32 } poison, ptr %exn, 0
  %lpad.val16 = insertvalue { ptr, i32 } %lpad.val, i32 %sel, 1
  resume { ptr, i32 } %lpad.val16
}