; Function Attrs: mustprogress uwtable
define noundef signext i8 @_ZN6icu_7518CollationTailoring15ensureOwnedDataER10UErrorCode(ptr nocapture noundef nonnull align 8 dereferenceable(400) %this, ptr noundef nonnull align 4 dereferenceable(4) %errorCode) local_unnamed_addr #0 align 2 personality ptr @__gxx_personality_v0 {
entry:
  %0 = load i32, ptr %errorCode, align 4
  %cmp.i = icmp slt i32 %0, 1
  br i1 %cmp.i, label %if.end, label %return

if.end:                                           ; preds = %entry
  %ownedData = getelementptr inbounds i8, ptr %this, i64 336
  %1 = load ptr, ptr %ownedData, align 8
  %cmp = icmp eq ptr %1, null
  br i1 %cmp, label %if.then2, label %if.end14

if.then2:                                         ; preds = %if.end
  %call3 = tail call noundef ptr @_ZN6icu_7518Normalizer2Factory10getNFCImplER10UErrorCode(ptr noundef nonnull align 4 dereferenceable(4) %errorCode)
  %2 = load i32, ptr %errorCode, align 4
  %cmp.i4 = icmp slt i32 %2, 1
  br i1 %cmp.i4, label %if.end7, label %return

if.end7:                                          ; preds = %if.then2
  %call8 = tail call noundef ptr @_ZN6icu_757UMemorynwEm(i64 noundef 144) #9
  %new.isnull = icmp eq ptr %call8, null
  br i1 %new.isnull, label %if.then12, label %new.cont

new.cont:                                         ; preds = %if.end7
  %nfcImpl.i = getelementptr inbounds i8, ptr %call8, i64 48
  tail call void @llvm.memset.p0.i64(ptr noundef nonnull align 8 dereferenceable(48) %call8, i8 0, i64 48, i1 false)
  store ptr %call3, ptr %nfcImpl.i, align 8
  %numericPrimary.i = getelementptr inbounds i8, ptr %call8, i64 56
  store i32 301989888, ptr %numericPrimary.i, align 8
  %ce32sLength.i = getelementptr inbounds i8, ptr %call8, i64 60
  %rootElements.i = getelementptr inbounds i8, ptr %call8, i64 128
  store ptr null, ptr %rootElements.i, align 8
  %rootElementsLength.i = getelementptr inbounds i8, ptr %call8, i64 136
  store i32 0, ptr %rootElementsLength.i, align 8
  tail call void @llvm.memset.p0.i64(ptr noundef nonnull align 4 dereferenceable(64) %ce32sLength.i, i8 0, i64 64, i1 false)
  store ptr %call8, ptr %ownedData, align 8
  br label %if.end14

if.then12:                                        ; preds = %if.end7
  store ptr null, ptr %ownedData, align 8
  store i32 7, ptr %errorCode, align 4
  br label %return

if.end14:                                         ; preds = %new.cont, %if.end
  %3 = phi ptr [ %call8, %new.cont ], [ %1, %if.end ]
  %data = getelementptr inbounds i8, ptr %this, i64 24
  store ptr %3, ptr %data, align 8
  br label %return

return:                                           ; preds = %if.then2, %entry, %if.end14, %if.then12
  %retval.0 = phi i8 [ 0, %if.then12 ], [ 1, %if.end14 ], [ 0, %entry ], [ 0, %if.then2 ]
  ret i8 %retval.0
}